target datalayout = "e-m:e-p270:32:32-p271:32:32-p272:64:64-i64:64-i128:128-f80:128-n8:16:32:64-S128"
target triple = "x86_64-pc-linux-gnu"

%struct.stbte__colorrect = type { i32, i32, i32, i32, i32 }
%struct.stbte__panel = type { i32, i32, i32, i32, i32, i32, i32, i32 }
%struct.stbte__ui_t = type { i32, i32, i32, i32, i32, i32, i32, i32, i32, i32, i32, i32, i32, i32, [2 x i32], [256 x %struct.stbte__colorrect], i32, i32, i32, i32, i32, i32, i32, i32, i32, i32, i32, i32, i32, i32, i32, i32, i32, i32, i32, i32, i32, i32, i32, i32, i32, i32, i32, i32, i32, i32, i32, i32, i32, i32, i32, i32, i32, i32, i32, i32, i32, float, ptr, float, [7 x %struct.stbte__panel], [65536 x [8 x i16]], [65536 x [1 x float]], i32, i32, ptr, i32, i32, i32, i32 }

; Function Attrs: nounwind uwtable
define void @stbte__draw_frame(i32 noundef %0, i32 noundef %1, i32 noundef %2, i32 noundef %3, i32 noundef %4) #0 {
  %6 = alloca i32, align 4
  %7 = alloca i32, align 4
  %8 = alloca i32, align 4
  %9 = alloca i32, align 4
  %10 = alloca i32, align 4
  store i32 %0, ptr %6, align 4, !tbaa !13
  store i32 %1, ptr %7, align 4, !tbaa !13
  store i32 %2, ptr %8, align 4, !tbaa !13
  store i32 %3, ptr %9, align 4, !tbaa !13
  store i32 %4, ptr %10, align 4, !tbaa !13
  %11 = load i32, ptr %6, align 4, !tbaa !13
  %12 = load i32, ptr %7, align 4, !tbaa !13
  %13 = load i32, ptr %8, align 4, !tbaa !13
  %14 = sub nsw i32 %13, 1
  %15 = load i32, ptr %7, align 4, !tbaa !13
  %16 = add nsw i32 %15, 1
  %17 = load i32, ptr %10, align 4, !tbaa !13
  call void @stbte__draw_rect(i32 noundef %11, i32 noundef %12, i32 noundef %14, i32 noundef %16, i32 noundef %17)
  %18 = load i32, ptr %8, align 4, !tbaa !13
  %19 = sub nsw i32 %18, 1
  %20 = load i32, ptr %7, align 4, !tbaa !13
  %21 = load i32, ptr %8, align 4, !tbaa !13
  %22 = load i32, ptr %9, align 4, !tbaa !13
  %23 = sub nsw i32 %22, 1
  %24 = load i32, ptr %10, align 4, !tbaa !13
  call void @stbte__draw_rect(i32 noundef %19, i32 noundef %20, i32 noundef %21, i32 noundef %23, i32 noundef %24)
  %25 = load i32, ptr %6, align 4, !tbaa !13
  %26 = add nsw i32 %25, 1
  %27 = load i32, ptr %9, align 4, !tbaa !13
  %28 = sub nsw i32 %27, 1
  %29 = load i32, ptr %8, align 4, !tbaa !13
  %30 = load i32, ptr %9, align 4, !tbaa !13
  %31 = load i32, ptr %10, align 4, !tbaa !13
  call void @stbte__draw_rect(i32 noundef %26, i32 noundef %28, i32 noundef %29, i32 noundef %30, i32 noundef %31)
  %32 = load i32, ptr %6, align 4, !tbaa !13
  %33 = load i32, ptr %7, align 4, !tbaa !13
  %34 = add nsw i32 %33, 1
  %35 = load i32, ptr %6, align 4, !tbaa !13
  %36 = add nsw i32 %35, 1
  %37 = load i32, ptr %9, align 4, !tbaa !13
  %38 = load i32, ptr %10, align 4, !tbaa !13
  call void @stbte__draw_rect(i32 noundef %32, i32 noundef %34, i32 noundef %36, i32 noundef %37, i32 noundef %38)
  ret void
}

; Function Attrs: nounwind uwtable
define void @stbte__draw_rect(i32 noundef %0, i32 noundef %1, i32 noundef %2, i32 noundef %3, i32 noundef %4) #0 {
  %6 = alloca i32, align 4
  %7 = alloca i32, align 4
  %8 = alloca i32, align 4
  %9 = alloca i32, align 4
  %10 = alloca i32, align 4
  store i32 %0, ptr %6, align 4, !tbaa !13
  store i32 %1, ptr %7, align 4, !tbaa !13
  store i32 %2, ptr %8, align 4, !tbaa !13
  store i32 %3, ptr %9, align 4, !tbaa !13
  store i32 %4, ptr %10, align 4, !tbaa !13
  %11 = load i32, ptr %6, align 4, !tbaa !13
  %12 = load i32, ptr %7, align 4, !tbaa !13
  %13 = load i32, ptr %8, align 4, !tbaa !13
  %14 = load i32, ptr %9, align 4, !tbaa !13
  %15 = load i32, ptr %10, align 4, !tbaa !13
  call void @STBTE_DRAW_RECT(i32 noundef %11, i32 noundef %12, i32 noundef %13, i32 noundef %14, i32 noundef %15)
  ret void
}

; Function Attrs: nounwind uwtable
define i32 @stbte__button_core(i32 noundef %0) #0 {
  %2 = alloca i32, align 4
  %3 = alloca i32, align 4
  store i32 %0, ptr %3, align 4, !tbaa !13
  %4 = load i32, ptr getelementptr inbounds nuw (%struct.stbte__ui_t, ptr @stbte__ui, i32 0, i32 5), align 4, !tbaa !110
  switch i32 %4, label %45 [
    i32 4, label %5
    i32 5, label %15
    i32 6, label %25
    i32 7, label %35
  ]

5:                                                ; preds = %1
  %6 = load i32, ptr getelementptr inbounds nuw (%struct.stbte__ui_t, ptr @stbte__ui, i32 0, i32 3), align 4, !tbaa !117
  %7 = load i32, ptr %3, align 4, !tbaa !13
  %8 = icmp eq i32 %6, %7
  br i1 %8, label %9, label %14

9:                                                ; preds = %5
  %10 = load i32, ptr getelementptr inbounds nuw (%struct.stbte__ui_t, ptr @stbte__ui, i32 0, i32 2), align 8, !tbaa !109
  %11 = icmp eq i32 %10, 0
  br i1 %11, label %12, label %14

12:                                               ; preds = %9
  %13 = load i32, ptr %3, align 4, !tbaa !13
  call void @stbte__activate(i32 noundef %13)
  br label %14

14:                                               ; preds = %12, %9, %5
  br label %45

15:                                               ; preds = %1
  %16 = load i32, ptr getelementptr inbounds nuw (%struct.stbte__ui_t, ptr @stbte__ui, i32 0, i32 2), align 8, !tbaa !109
  %17 = load i32, ptr %3, align 4, !tbaa !13
  %18 = icmp eq i32 %16, %17
  br i1 %18, label %19, label %24

19:                                               ; preds = %15
  %20 = load i32, ptr getelementptr inbounds nuw (%struct.stbte__ui_t, ptr @stbte__ui, i32 0, i32 3), align 4, !tbaa !117
  %21 = load i32, ptr %3, align 4, !tbaa !13
  %22 = icmp eq i32 %20, %21
  br i1 %22, label %23, label %24

23:                                               ; preds = %19
  call void @stbte__activate(i32 noundef 0)
  store i32 1, ptr %2, align 4
  br label %46

24:                                               ; preds = %19, %15
  br label %45

25:                                               ; preds = %1
  %26 = load i32, ptr getelementptr inbounds nuw (%struct.stbte__ui_t, ptr @stbte__ui, i32 0, i32 3), align 4, !tbaa !117
  %27 = load i32, ptr %3, align 4, !tbaa !13
  %28 = icmp eq i32 %26, %27
  br i1 %28, label %29, label %34

29:                                               ; preds = %25
  %30 = load i32, ptr getelementptr inbounds nuw (%struct.stbte__ui_t, ptr @stbte__ui, i32 0, i32 2), align 8, !tbaa !109
  %31 = icmp eq i32 %30, 0
  br i1 %31, label %32, label %34

32:                                               ; preds = %29
  %33 = load i32, ptr %3, align 4, !tbaa !13
  call void @stbte__activate(i32 noundef %33)
  br label %34

34:                                               ; preds = %32, %29, %25
  br label %45

35:                                               ; preds = %1
  %36 = load i32, ptr getelementptr inbounds nuw (%struct.stbte__ui_t, ptr @stbte__ui, i32 0, i32 2), align 8, !tbaa !109
  %37 = load i32, ptr %3, align 4, !tbaa !13
  %38 = icmp eq i32 %36, %37
  br i1 %38, label %39, label %44

39:                                               ; preds = %35
  %40 = load i32, ptr getelementptr inbounds nuw (%struct.stbte__ui_t, ptr @stbte__ui, i32 0, i32 3), align 4, !tbaa !117
  %41 = load i32, ptr %3, align 4, !tbaa !13
  %42 = icmp eq i32 %40, %41
  br i1 %42, label %43, label %44

43:                                               ; preds = %39
  call void @stbte__activate(i32 noundef 0)
  store i32 -1, ptr %2, align 4
  br label %46

44:                                               ; preds = %39, %35
  br label %45

45:                                               ; preds = %1, %44, %34, %24, %14
  store i32 0, ptr %2, align 4
  br label %46

46:                                               ; preds = %45, %43, %23
  %47 = load i32, ptr %2, align 4
  ret i32 %47
}

; Function Attrs: nounwind uwtable
define void @stbte__activate(i32 noundef %0) #0 {
  %2 = alloca i32, align 4
  store i32 %0, ptr %2, align 4, !tbaa !13
  %3 = load i32, ptr %2, align 4, !tbaa !13
  store i32 %3, ptr getelementptr inbounds nuw (%struct.stbte__ui_t, ptr @stbte__ui, i32 0, i32 2), align 8, !tbaa !109
  %4 = load i32, ptr getelementptr inbounds nuw (%struct.stbte__ui_t, ptr @stbte__ui, i32 0, i32 5), align 4, !tbaa !110
  store i32 %4, ptr getelementptr inbounds nuw (%struct.stbte__ui_t, ptr @stbte__ui, i32 0, i32 1), align 4, !tbaa !111
  store i32 0, ptr getelementptr inbounds nuw (%struct.stbte__ui_t, ptr @stbte__ui, i32 0, i32 31), align 4, !tbaa !112
  store i32 0, ptr getelementptr inbounds nuw (%struct.stbte__ui_t, ptr @stbte__ui, i32 0, i32 32), align 8, !tbaa !113
  ret void
}

; Function Attrs: nounwind uwtable
define void @stbte__draw_box(i32 noundef %0, i32 noundef %1, i32 noundef %2, i32 noundef %3, i32 noundef %4, i32 noundef %5) #0 {
  %7 = alloca i32, align 4
  %8 = alloca i32, align 4
  %9 = alloca i32, align 4
  %10 = alloca i32, align 4
  %11 = alloca i32, align 4
  %12 = alloca i32, align 4
  store i32 %0, ptr %7, align 4, !tbaa !13
  store i32 %1, ptr %8, align 4, !tbaa !13
  store i32 %2, ptr %9, align 4, !tbaa !13
  store i32 %3, ptr %10, align 4, !tbaa !13
  store i32 %4, ptr %11, align 4, !tbaa !13
  store i32 %5, ptr %12, align 4, !tbaa !13
  %13 = load i32, ptr %7, align 4, !tbaa !13
  %14 = load i32, ptr %8, align 4, !tbaa !13
  %15 = load i32, ptr %9, align 4, !tbaa !13
  %16 = load i32, ptr %10, align 4, !tbaa !13
  %17 = load i32, ptr %11, align 4, !tbaa !13
  %18 = sext i32 %17 to i64
  %19 = getelementptr inbounds [13 x [3 x [7 x i32]]], ptr @stbte__color_table, i64 0, i64 %18
  %20 = getelementptr inbounds [3 x [7 x i32]], ptr %19, i64 0, i64 0
  %21 = load i32, ptr %12, align 4, !tbaa !13
  %22 = sext i32 %21 to i64
  %23 = getelementptr inbounds [7 x i32], ptr %20, i64 0, i64 %22
  %24 = load i32, ptr %23, align 4, !tbaa !13
  call void @stbte__draw_rect(i32 noundef %13, i32 noundef %14, i32 noundef %15, i32 noundef %16, i32 noundef %24)
  %25 = load i32, ptr %7, align 4, !tbaa !13
  %26 = load i32, ptr %8, align 4, !tbaa !13
  %27 = load i32, ptr %9, align 4, !tbaa !13
  %28 = load i32, ptr %10, align 4, !tbaa !13
  %29 = load i32, ptr %11, align 4, !tbaa !13
  %30 = sext i32 %29 to i64
  %31 = getelementptr inbounds [13 x [3 x [7 x i32]]], ptr @stbte__color_table, i64 0, i64 %30
  %32 = getelementptr inbounds [3 x [7 x i32]], ptr %31, i64 0, i64 1
  %33 = load i32, ptr %12, align 4, !tbaa !13
  %34 = sext i32 %33 to i64
  %35 = getelementptr inbounds [7 x i32], ptr %32, i64 0, i64 %34
  %36 = load i32, ptr %35, align 4, !tbaa !13
  call void @stbte__draw_frame(i32 noundef %25, i32 noundef %26, i32 noundef %27, i32 noundef %28, i32 noundef %36)
  ret void
}

; Function Attrs: nounwind uwtable
define i32 @stbte__hittest(i32 noundef %0, i32 noundef %1, i32 noundef %2, i32 noundef %3, i32 noundef %4) #0 {
  %6 = alloca i32, align 4
  %7 = alloca i32, align 4
  %8 = alloca i32, align 4
  %9 = alloca i32, align 4
  %10 = alloca i32, align 4
  %11 = alloca i32, align 4
  store i32 %0, ptr %6, align 4, !tbaa !13
  store i32 %1, ptr %7, align 4, !tbaa !13
  store i32 %2, ptr %8, align 4, !tbaa !13
  store i32 %3, ptr %9, align 4, !tbaa !13
  store i32 %4, ptr %10, align 4, !tbaa !13
  call void @llvm.lifetime.start.p0(i64 4, ptr %11) #8
  %12 = load i32, ptr getelementptr inbounds nuw (%struct.stbte__ui_t, ptr @stbte__ui, i32 0, i32 6), align 8, !tbaa !114
  %13 = load i32, ptr %6, align 4, !tbaa !13
  %14 = icmp sge i32 %12, %13
  br i1 %14, label %15, label %27

15:                                               ; preds = %5
  %16 = load i32, ptr getelementptr inbounds nuw (%struct.stbte__ui_t, ptr @stbte__ui, i32 0, i32 7), align 4, !tbaa !115
  %17 = load i32, ptr %7, align 4, !tbaa !13
  %18 = icmp sge i32 %16, %17
  br i1 %18, label %19, label %27

19:                                               ; preds = %15
  %20 = load i32, ptr getelementptr inbounds nuw (%struct.stbte__ui_t, ptr @stbte__ui, i32 0, i32 6), align 8, !tbaa !114
  %21 = load i32, ptr %8, align 4, !tbaa !13
  %22 = icmp slt i32 %20, %21
  br i1 %22, label %23, label %27

23:                                               ; preds = %19
  %24 = load i32, ptr getelementptr inbounds nuw (%struct.stbte__ui_t, ptr @stbte__ui, i32 0, i32 7), align 4, !tbaa !115
  %25 = load i32, ptr %9, align 4, !tbaa !13
  %26 = icmp slt i32 %24, %25
  br label %27

27:                                               ; preds = %23, %19, %15, %5
  %28 = phi i1 [ false, %19 ], [ false, %15 ], [ false, %5 ], [ %26, %23 ]
  %29 = zext i1 %28 to i32
  store i32 %29, ptr %11, align 4, !tbaa !13
  %30 = load i32, ptr %11, align 4, !tbaa !13
  %31 = icmp ne i32 %30, 0
  br i1 %31, label %32, label %37

32:                                               ; preds = %27
  %33 = load i32, ptr getelementptr inbounds nuw (%struct.stbte__ui_t, ptr @stbte__ui, i32 0, i32 5), align 4, !tbaa !110
  %34 = icmp sge i32 %33, 1
  br i1 %34, label %35, label %37

35:                                               ; preds = %32
  %36 = load i32, ptr %10, align 4, !tbaa !13
  store i32 %36, ptr getelementptr inbounds nuw (%struct.stbte__ui_t, ptr @stbte__ui, i32 0, i32 4), align 8, !tbaa !116
  br label %37

37:                                               ; preds = %35, %32, %27
  %38 = load i32, ptr %11, align 4, !tbaa !13
  call void @llvm.lifetime.end.p0(i64 4, ptr %11) #8
  ret i32 %38
}

; Function Attrs: nounwind uwtable
define i32 @stbte__microbutton_dragger(i32 noundef %0, i32 noundef %1, i32 noundef %2, i32 noundef %3, ptr noundef %4) #0 {
  %6 = alloca i32, align 4
  %7 = alloca i32, align 4
  %8 = alloca i32, align 4
  %9 = alloca i32, align 4
  %10 = alloca i32, align 4
  %11 = alloca ptr, align 8
  %12 = alloca i32, align 4
  %13 = alloca i32, align 4
  %14 = alloca i32, align 4
  %15 = alloca i32, align 4
  %16 = alloca i32, align 4
  store i32 %0, ptr %7, align 4, !tbaa !13
  store i32 %1, ptr %8, align 4, !tbaa !13
  store i32 %2, ptr %9, align 4, !tbaa !13
  store i32 %3, ptr %10, align 4, !tbaa !13
  store ptr %4, ptr %11, align 8, !tbaa !78
  call void @llvm.lifetime.start.p0(i64 4, ptr %12) #8
  %17 = load i32, ptr %7, align 4, !tbaa !13
  store i32 %17, ptr %12, align 4, !tbaa !13
  call void @llvm.lifetime.start.p0(i64 4, ptr %13) #8
  %18 = load i32, ptr %8, align 4, !tbaa !13
  store i32 %18, ptr %13, align 4, !tbaa !13
  call void @llvm.lifetime.start.p0(i64 4, ptr %14) #8
  %19 = load i32, ptr %7, align 4, !tbaa !13
  %20 = load i32, ptr %9, align 4, !tbaa !13
  %21 = add nsw i32 %19, %20
  store i32 %21, ptr %14, align 4, !tbaa !13
  call void @llvm.lifetime.start.p0(i64 4, ptr %15) #8
  %22 = load i32, ptr %8, align 4, !tbaa !13
  %23 = load i32, ptr %9, align 4, !tbaa !13
  %24 = add nsw i32 %22, %23
  store i32 %24, ptr %15, align 4, !tbaa !13
  %25 = load i32, ptr %12, align 4, !tbaa !13
  %26 = load i32, ptr %13, align 4, !tbaa !13
  %27 = load i32, ptr %14, align 4, !tbaa !13
  %28 = load i32, ptr %15, align 4, !tbaa !13
  %29 = load i32, ptr %10, align 4, !tbaa !13
  %30 = call i32 @stbte__hittest(i32 noundef %25, i32 noundef %26, i32 noundef %27, i32 noundef %28, i32 noundef %29)
  %31 = load i32, ptr getelementptr inbounds nuw (%struct.stbte__ui_t, ptr @stbte__ui, i32 0, i32 5), align 4, !tbaa !110
  switch i32 %31, label %84 [
    i32 0, label %32
    i32 4, label %51
    i32 2, label %65
    i32 5, label %78
  ]

32:                                               ; preds = %5
  %33 = load i32, ptr %12, align 4, !tbaa !13
  %34 = load i32, ptr %13, align 4, !tbaa !13
  %35 = load i32, ptr %14, align 4, !tbaa !13
  %36 = load i32, ptr %15, align 4, !tbaa !13
  %37 = load i32, ptr getelementptr inbounds nuw (%struct.stbte__ui_t, ptr @stbte__ui, i32 0, i32 2), align 8, !tbaa !109
  %38 = load i32, ptr %10, align 4, !tbaa !13
  %39 = icmp eq i32 %37, %38
  %40 = zext i1 %39 to i32
  %41 = sext i32 %40 to i64
  %42 = getelementptr inbounds [2 x [2 x i8]], ptr @stbte__state_to_index, i64 0, i64 %41
  %43 = load i32, ptr getelementptr inbounds nuw (%struct.stbte__ui_t, ptr @stbte__ui, i32 0, i32 3), align 4, !tbaa !117
  %44 = load i32, ptr %10, align 4, !tbaa !13
  %45 = icmp eq i32 %43, %44
  %46 = zext i1 %45 to i32
  %47 = sext i32 %46 to i64
  %48 = getelementptr inbounds [2 x i8], ptr %42, i64 0, i64 %47
  %49 = load i8, ptr %48, align 1, !tbaa !60
  %50 = zext i8 %49 to i32
  call void @stbte__draw_box(i32 noundef %33, i32 noundef %34, i32 noundef %35, i32 noundef %36, i32 noundef 0, i32 noundef %50)
  br label %87

51:                                               ; preds = %5
  %52 = load i32, ptr getelementptr inbounds nuw (%struct.stbte__ui_t, ptr @stbte__ui, i32 0, i32 3), align 4, !tbaa !117
  %53 = load i32, ptr %10, align 4, !tbaa !13
  %54 = icmp eq i32 %52, %53
  br i1 %54, label %55, label %64

55:                                               ; preds = %51
  %56 = load i32, ptr getelementptr inbounds nuw (%struct.stbte__ui_t, ptr @stbte__ui, i32 0, i32 2), align 8, !tbaa !109
  %57 = icmp eq i32 %56, 0
  br i1 %57, label %58, label %64

58:                                               ; preds = %55
  %59 = load i32, ptr %10, align 4, !tbaa !13
  call void @stbte__activate(i32 noundef %59)
  %60 = load i32, ptr getelementptr inbounds nuw (%struct.stbte__ui_t, ptr @stbte__ui, i32 0, i32 6), align 8, !tbaa !114
  %61 = load ptr, ptr %11, align 8, !tbaa !78
  %62 = load i32, ptr %61, align 4, !tbaa !13
  %63 = sub nsw i32 %60, %62
  store i32 %63, ptr getelementptr inbounds nuw (%struct.stbte__ui_t, ptr @stbte__ui, i32 0, i32 49), align 4, !tbaa !118
  br label %64

64:                                               ; preds = %58, %55, %51
  br label %87

65:                                               ; preds = %5
  %66 = load i32, ptr getelementptr inbounds nuw (%struct.stbte__ui_t, ptr @stbte__ui, i32 0, i32 2), align 8, !tbaa !109
  %67 = load i32, ptr %10, align 4, !tbaa !13
  %68 = icmp eq i32 %66, %67
  br i1 %68, label %69, label %77

69:                                               ; preds = %65
  %70 = load i32, ptr getelementptr inbounds nuw (%struct.stbte__ui_t, ptr @stbte__ui, i32 0, i32 1), align 4, !tbaa !111
  %71 = icmp eq i32 %70, 4
  br i1 %71, label %72, label %77

72:                                               ; preds = %69
  %73 = load i32, ptr getelementptr inbounds nuw (%struct.stbte__ui_t, ptr @stbte__ui, i32 0, i32 6), align 8, !tbaa !114
  %74 = load i32, ptr getelementptr inbounds nuw (%struct.stbte__ui_t, ptr @stbte__ui, i32 0, i32 49), align 4, !tbaa !118
  %75 = sub nsw i32 %73, %74
  %76 = load ptr, ptr %11, align 8, !tbaa !78
  store i32 %75, ptr %76, align 4, !tbaa !13
  br label %77

77:                                               ; preds = %72, %69, %65
  br label %87

78:                                               ; preds = %5
  %79 = load i32, ptr getelementptr inbounds nuw (%struct.stbte__ui_t, ptr @stbte__ui, i32 0, i32 2), align 8, !tbaa !109
  %80 = load i32, ptr %10, align 4, !tbaa !13
  %81 = icmp eq i32 %79, %80
  br i1 %81, label %82, label %83

82:                                               ; preds = %78
  call void @stbte__activate(i32 noundef 0)
  br label %83

83:                                               ; preds = %82, %78
  br label %87

84:                                               ; preds = %5
  %85 = load i32, ptr %10, align 4, !tbaa !13
  %86 = call i32 @stbte__button_core(i32 noundef %85)
  store i32 %86, ptr %6, align 4
  store i32 1, ptr %16, align 4
  br label %88

87:                                               ; preds = %83, %77, %64, %32
  store i32 0, ptr %6, align 4
  store i32 1, ptr %16, align 4
  br label %88

88:                                               ; preds = %87, %84
  call void @llvm.lifetime.end.p0(i64 4, ptr %15) #8
  call void @llvm.lifetime.end.p0(i64 4, ptr %14) #8
  call void @llvm.lifetime.end.p0(i64 4, ptr %13) #8
  call void @llvm.lifetime.end.p0(i64 4, ptr %12) #8
  %89 = load i32, ptr %6, align 4
  ret i32 %89
}