; Function Attrs: nounwind uwtable
define range(i32 -1, 1) i32 @stbte__microbutton_dragger(i32 noundef %0, i32 noundef %1, i32 noundef %2, i32 noundef %3, ptr noundef captures(none) %4) local_unnamed_addr #15 {
  %6 = add nsw i32 %2, %0
  %7 = add nsw i32 %2, %1
  %8 = load i32, ptr getelementptr inbounds nuw (i8, ptr @stbte__ui, i64 24), align 8, !tbaa !99
  %.not.i = icmp slt i32 %8, %0
  br i1 %.not.i, label %stbte__hittest.exitthread-pre-split, label %9

9:                                                ; preds = %5
  %10 = load i32, ptr getelementptr inbounds nuw (i8, ptr @stbte__ui, i64 28), align 4, !tbaa !100
  %.not9.i = icmp sge i32 %10, %1
  %11 = icmp slt i32 %8, %6
  %or.cond10.i = and i1 %11, %.not9.i
  %12 = icmp slt i32 %10, %7
  %spec.select.i = and i1 %12, %or.cond10.i
  %13 = load i32, ptr getelementptr inbounds nuw (i8, ptr @stbte__ui, i64 20), align 4
  %14 = icmp sgt i32 %13, 0
  %or.cond.i = select i1 %spec.select.i, i1 %14, i1 false
  br i1 %or.cond.i, label %15, label %stbte__hittest.exit

15:                                               ; preds = %9
  store i32 %3, ptr getelementptr inbounds nuw (i8, ptr @stbte__ui, i64 16), align 8, !tbaa !101
  br label %stbte__hittest.exit

stbte__hittest.exitthread-pre-split:              ; preds = %5
  %.pr = load i32, ptr getelementptr inbounds nuw (i8, ptr @stbte__ui, i64 20), align 4, !tbaa !95
  br label %stbte__hittest.exit

stbte__hittest.exit:                              ; preds = %stbte__hittest.exitthread-pre-split, %9, %15
  %16 = phi i32 [ %.pr, %stbte__hittest.exitthread-pre-split ], [ %13, %9 ], [ %13, %15 ]
  switch i32 %16, label %stbte__button_core.exit [
    i32 0, label %17
    i32 4, label %35
    i32 2, label %43
    i32 5, label %51
    i32 6, label %55
    i32 7, label %60
  ]

17:                                               ; preds = %stbte__hittest.exit
  %18 = load i32, ptr getelementptr inbounds nuw (i8, ptr @stbte__ui, i64 8), align 8, !tbaa !94
  %19 = icmp eq i32 %18, %3
  %20 = zext i1 %19 to i64
  %21 = load i32, ptr getelementptr inbounds nuw (i8, ptr @stbte__ui, i64 12), align 4, !tbaa !102
  %22 = icmp eq i32 %21, %3
  %23 = zext i1 %22 to i64
  %24 = getelementptr inbounds nuw [2 x [2 x i8]], ptr @stbte__state_to_index, i64 0, i64 %20, i64 %23
  %25 = load i8, ptr %24, align 1, !tbaa !47
  %26 = zext i8 %25 to i64
  %27 = getelementptr inbounds nuw [7 x i32], ptr @stbte__color_table, i64 0, i64 %26
  %28 = load i32, ptr %27, align 4, !tbaa !67
  tail call void @STBTE_DRAW_RECT(i32 noundef %0, i32 noundef %1, i32 noundef %6, i32 noundef %7, i32 noundef %28) #26
  %29 = getelementptr inbounds nuw [7 x i32], ptr getelementptr inbounds nuw (i8, ptr @stbte__color_table, i64 28), i64 0, i64 %26
  %30 = load i32, ptr %29, align 4, !tbaa !67
  %31 = add nsw i32 %6, -1
  %32 = add nsw i32 %1, 1
  tail call void @STBTE_DRAW_RECT(i32 noundef %0, i32 noundef %1, i32 noundef %31, i32 noundef %32, i32 noundef %30) #26
  %33 = add nsw i32 %7, -1
  tail call void @STBTE_DRAW_RECT(i32 noundef %31, i32 noundef %1, i32 noundef %6, i32 noundef %33, i32 noundef %30) #26
  %34 = add nsw i32 %0, 1
  tail call void @STBTE_DRAW_RECT(i32 noundef %34, i32 noundef %33, i32 noundef %6, i32 noundef %7, i32 noundef %30) #26
  tail call void @STBTE_DRAW_RECT(i32 noundef %0, i32 noundef %32, i32 noundef %34, i32 noundef %7, i32 noundef %30) #26
  br label %stbte__button_core.exit

35:                                               ; preds = %stbte__hittest.exit
  %36 = load i32, ptr getelementptr inbounds nuw (i8, ptr @stbte__ui, i64 12), align 4, !tbaa !102
  %37 = icmp eq i32 %36, %3
  %38 = load i32, ptr getelementptr inbounds nuw (i8, ptr @stbte__ui, i64 8), align 8
  %39 = icmp eq i32 %38, 0
  %or.cond = select i1 %37, i1 %39, i1 false
  br i1 %or.cond, label %40, label %stbte__button_core.exit

40:                                               ; preds = %35
  store i32 %3, ptr getelementptr inbounds nuw (i8, ptr @stbte__ui, i64 8), align 8, !tbaa !94
  store i32 4, ptr getelementptr inbounds nuw (i8, ptr @stbte__ui, i64 4), align 4, !tbaa !96
  store i32 0, ptr getelementptr inbounds nuw (i8, ptr @stbte__ui, i64 5244), align 4, !tbaa !97
  store i32 0, ptr getelementptr inbounds nuw (i8, ptr @stbte__ui, i64 5248), align 8, !tbaa !98
  %41 = load i32, ptr %4, align 4, !tbaa !67
  %42 = sub nsw i32 %8, %41
  store i32 %42, ptr getelementptr inbounds nuw (i8, ptr @stbte__ui, i64 5316), align 4, !tbaa !103
  br label %stbte__button_core.exit

43:                                               ; preds = %stbte__hittest.exit
  %44 = load i32, ptr getelementptr inbounds nuw (i8, ptr @stbte__ui, i64 8), align 8, !tbaa !94
  %45 = icmp eq i32 %44, %3
  %46 = load i32, ptr getelementptr inbounds nuw (i8, ptr @stbte__ui, i64 4), align 4
  %47 = icmp eq i32 %46, 4
  %or.cond3 = select i1 %45, i1 %47, i1 false
  br i1 %or.cond3, label %48, label %stbte__button_core.exit

48:                                               ; preds = %43
  %49 = load i32, ptr getelementptr inbounds nuw (i8, ptr @stbte__ui, i64 5316), align 4, !tbaa !103
  %50 = sub nsw i32 %8, %49
  store i32 %50, ptr %4, align 4, !tbaa !67
  br label %stbte__button_core.exit

51:                                               ; preds = %stbte__hittest.exit
  %52 = load i32, ptr getelementptr inbounds nuw (i8, ptr @stbte__ui, i64 8), align 8, !tbaa !94
  %53 = icmp eq i32 %52, %3
  br i1 %53, label %54, label %stbte__button_core.exit

54:                                               ; preds = %51
  store i32 0, ptr getelementptr inbounds nuw (i8, ptr @stbte__ui, i64 8), align 8, !tbaa !94
  store i32 5, ptr getelementptr inbounds nuw (i8, ptr @stbte__ui, i64 4), align 4, !tbaa !96
  store i32 0, ptr getelementptr inbounds nuw (i8, ptr @stbte__ui, i64 5244), align 4, !tbaa !97
  store i32 0, ptr getelementptr inbounds nuw (i8, ptr @stbte__ui, i64 5248), align 8, !tbaa !98
  br label %stbte__button_core.exit

55:                                               ; preds = %stbte__hittest.exit
  %56 = load i32, ptr getelementptr inbounds nuw (i8, ptr @stbte__ui, i64 12), align 4, !tbaa !102
  %57 = icmp eq i32 %56, %3
  %58 = load i32, ptr getelementptr inbounds nuw (i8, ptr @stbte__ui, i64 8), align 8
  %59 = icmp eq i32 %58, 0
  %or.cond3.i = select i1 %57, i1 %59, i1 false
  br i1 %or.cond3.i, label %.sink.split.i, label %stbte__button_core.exit

60:                                               ; preds = %stbte__hittest.exit
  %61 = load i32, ptr getelementptr inbounds nuw (i8, ptr @stbte__ui, i64 8), align 8, !tbaa !94
  %62 = icmp eq i32 %61, %3
  %63 = load i32, ptr getelementptr inbounds nuw (i8, ptr @stbte__ui, i64 12), align 4
  %64 = icmp eq i32 %63, %3
  %or.cond16.i = select i1 %62, i1 %64, i1 false
  br i1 %or.cond16.i, label %.sink.split.i, label %stbte__button_core.exit

.sink.split.i:                                    ; preds = %60, %55
  %.sink17.i = phi i32 [ %3, %55 ], [ 0, %60 ]
  %.0.ph.i = phi i32 [ 0, %55 ], [ -1, %60 ]
  store i32 %.sink17.i, ptr getelementptr inbounds nuw (i8, ptr @stbte__ui, i64 8), align 8, !tbaa !94
  store i32 %16, ptr getelementptr inbounds nuw (i8, ptr @stbte__ui, i64 4), align 4, !tbaa !96
  store i32 0, ptr getelementptr inbounds nuw (i8, ptr @stbte__ui, i64 5244), align 4, !tbaa !97
  store i32 0, ptr getelementptr inbounds nuw (i8, ptr @stbte__ui, i64 5248), align 8, !tbaa !98
  br label %stbte__button_core.exit

stbte__button_core.exit:                          ; preds = %stbte__hittest.exit, %.sink.split.i, %60, %55, %17, %40, %35, %48, %43, %54, %51
  %.0 = phi i32 [ 0, %51 ], [ 0, %54 ], [ 0, %43 ], [ 0, %48 ], [ 0, %35 ], [ 0, %40 ], [ 0, %17 ], [ 0, %60 ], [ 0, %55 ], [ %.0.ph.i, %.sink.split.i ], [ 0, %stbte__hittest.exit ]
  ret i32 %.0
}